(lp0
V3453909285
p1
aV1174425248
p2
aV1965183062
p3
aV2268262957
p4
aV2244237805
p5
aV1965183062
p6
aV4242606568
p7
aV5442739014
p8
aV6276980999
p9
aV6242160948
p10
aV3614022607
p11
aV8846297977
p12
aV9247500686
p13
aV1258384414
p14
aV6353281977
p15
a.