(lp0
V3453909285
p1
aV1174425248
p2
aV2244237805
p3
aV1965183062
p4
aV4242606568
p5
aV5442739014
p6
aV6276980999
p7
aV6242160948
p8
aV3614022607
p9
aV9247500686
p10
aV1258384414
p11
aV6353281977
p12
aV4102234594
p13
aV3802766482
p14
aV2750281091
p15
a.